; ModuleID = '51/403.c'
source_filename = "51/403.c"
target datalayout = "e-m:e-p270:32:32-p271:32:32-p272:64:64-i64:64-f80:128-n8:16:32:64-S128"
target triple = "x86_64-pc-linux-gnu"

@.str = private unnamed_addr constant [4 x i8] c"%d\0A\00", align 1
@.str.1 = private unnamed_addr constant [3 x i8] c"NO\00", align 1
@.str.2 = private unnamed_addr constant [3 x i8] c"%c\00", align 1
@.str.3 = private unnamed_addr constant [2 x i8] c"\0A\00", align 1

; Function Attrs: noinline nounwind uwtable
define dso_local i32 @main() #0 {
  %1 = alloca i32, align 4
  %2 = alloca i32, align 4
  %3 = alloca [500 x i32], align 16
  %4 = alloca i32, align 4
  %5 = alloca i32, align 4
  %6 = alloca i32, align 4
  %7 = alloca i32, align 4
  %8 = alloca i32, align 4
  %9 = alloca [500 x i8], align 16
  store i32 0, i32* %1, align 4
  %10 = call i32 (i8*, ...) @__isoc99_scanf(i8* getelementptr inbounds ([4 x i8], [4 x i8]* @.str, i64 0, i64 0), i32* %2)
  %11 = getelementptr inbounds [500 x i8], [500 x i8]* %9, i64 0, i64 0
  %12 = call i32 (i8*, ...) bitcast (i32 (...)* @gets to i32 (i8*, ...)*)(i8* %11)
  store i32 0, i32* %4, align 4
  br label %13

13:                                               ; preds = %71, %0
  %14 = load i32, i32* %4, align 4
  %15 = sext i32 %14 to i64
  %16 = getelementptr inbounds [500 x i8], [500 x i8]* %9, i64 0, i64 0
  %17 = call i64 @strlen(i8* %16) #3
  %18 = icmp ult i64 %15, %17
  br i1 %18, label %19, label %74

19:                                               ; preds = %13
  %20 = load i32, i32* %4, align 4
  %21 = sext i32 %20 to i64
  %22 = getelementptr inbounds [500 x i32], [500 x i32]* %3, i64 0, i64 %21
  store i32 1, i32* %22, align 4
  %23 = load i32, i32* %4, align 4
  %24 = add nsw i32 %23, 1
  store i32 %24, i32* %5, align 4
  br label %25

25:                                               ; preds = %67, %19
  %26 = load i32, i32* %5, align 4
  %27 = sext i32 %26 to i64
  %28 = getelementptr inbounds [500 x i8], [500 x i8]* %9, i64 0, i64 0
  %29 = call i64 @strlen(i8* %28) #3
  %30 = icmp ult i64 %27, %29
  br i1 %30, label %31, label %70

31:                                               ; preds = %25
  store i32 1, i32* %7, align 4
  store i32 0, i32* %6, align 4
  br label %32

32:                                               ; preds = %54, %31
  %33 = load i32, i32* %6, align 4
  %34 = load i32, i32* %2, align 4
  %35 = icmp slt i32 %33, %34
  br i1 %35, label %36, label %57

36:                                               ; preds = %32
  %37 = load i32, i32* %4, align 4
  %38 = load i32, i32* %6, align 4
  %39 = add nsw i32 %37, %38
  %40 = sext i32 %39 to i64
  %41 = getelementptr inbounds [500 x i8], [500 x i8]* %9, i64 0, i64 %40
  %42 = load i8, i8* %41, align 1
  %43 = sext i8 %42 to i32
  %44 = load i32, i32* %5, align 4
  %45 = load i32, i32* %6, align 4
  %46 = add nsw i32 %44, %45
  %47 = sext i32 %46 to i64
  %48 = getelementptr inbounds [500 x i8], [500 x i8]* %9, i64 0, i64 %47
  %49 = load i8, i8* %48, align 1
  %50 = sext i8 %49 to i32
  %51 = icmp ne i32 %43, %50
  br i1 %51, label %52, label %53

52:                                               ; preds = %36
  store i32 0, i32* %7, align 4
  br label %53

53:                                               ; preds = %52, %36
  br label %54

54:                                               ; preds = %53
  %55 = load i32, i32* %6, align 4
  %56 = add nsw i32 %55, 1
  store i32 %56, i32* %6, align 4
  br label %32

57:                                               ; preds = %32
  %58 = load i32, i32* %7, align 4
  %59 = icmp eq i32 %58, 1
  br i1 %59, label %60, label %66

60:                                               ; preds = %57
  %61 = load i32, i32* %4, align 4
  %62 = sext i32 %61 to i64
  %63 = getelementptr inbounds [500 x i32], [500 x i32]* %3, i64 0, i64 %62
  %64 = load i32, i32* %63, align 4
  %65 = add nsw i32 %64, 1
  store i32 %65, i32* %63, align 4
  br label %66

66:                                               ; preds = %60, %57
  br label %67

67:                                               ; preds = %66
  %68 = load i32, i32* %5, align 4
  %69 = add nsw i32 %68, 1
  store i32 %69, i32* %5, align 4
  br label %25

70:                                               ; preds = %25
  br label %71

71:                                               ; preds = %70
  %72 = load i32, i32* %4, align 4
  %73 = add nsw i32 %72, 1
  store i32 %73, i32* %4, align 4
  br label %13

74:                                               ; preds = %13
  store i32 0, i32* %7, align 4
  store i32 0, i32* %4, align 4
  br label %75

75:                                               ; preds = %89, %74
  %76 = load i32, i32* %4, align 4
  %77 = sext i32 %76 to i64
  %78 = getelementptr inbounds [500 x i8], [500 x i8]* %9, i64 0, i64 0
  %79 = call i64 @strlen(i8* %78) #3
  %80 = icmp ult i64 %77, %79
  br i1 %80, label %81, label %92

81:                                               ; preds = %75
  %82 = load i32, i32* %4, align 4
  %83 = sext i32 %82 to i64
  %84 = getelementptr inbounds [500 x i32], [500 x i32]* %3, i64 0, i64 %83
  %85 = load i32, i32* %84, align 4
  %86 = icmp sgt i32 %85, 1
  br i1 %86, label %87, label %88

87:                                               ; preds = %81
  store i32 1, i32* %7, align 4
  br label %92

88:                                               ; preds = %81
  br label %89

89:                                               ; preds = %88
  %90 = load i32, i32* %4, align 4
  %91 = add nsw i32 %90, 1
  store i32 %91, i32* %4, align 4
  br label %75

92:                                               ; preds = %87, %75
  %93 = load i32, i32* %7, align 4
  %94 = icmp eq i32 %93, 0
  br i1 %94, label %95, label %97

95:                                               ; preds = %92
  %96 = call i32 (i8*, ...) @printf(i8* getelementptr inbounds ([3 x i8], [3 x i8]* @.str.1, i64 0, i64 0))
  br label %161

97:                                               ; preds = %92
  store i32 2, i32* %8, align 4
  store i32 0, i32* %4, align 4
  br label %98

98:                                               ; preds = %117, %97
  %99 = load i32, i32* %4, align 4
  %100 = sext i32 %99 to i64
  %101 = getelementptr inbounds [500 x i8], [500 x i8]* %9, i64 0, i64 0
  %102 = call i64 @strlen(i8* %101) #3
  %103 = icmp ult i64 %100, %102
  br i1 %103, label %104, label %120

104:                                              ; preds = %98
  %105 = load i32, i32* %4, align 4
  %106 = sext i32 %105 to i64
  %107 = getelementptr inbounds [500 x i32], [500 x i32]* %3, i64 0, i64 %106
  %108 = load i32, i32* %107, align 4
  %109 = load i32, i32* %8, align 4
  %110 = icmp sgt i32 %108, %109
  br i1 %110, label %111, label %116

111:                                              ; preds = %104
  %112 = load i32, i32* %4, align 4
  %113 = sext i32 %112 to i64
  %114 = getelementptr inbounds [500 x i32], [500 x i32]* %3, i64 0, i64 %113
  %115 = load i32, i32* %114, align 4
  store i32 %115, i32* %8, align 4
  br label %116

116:                                              ; preds = %111, %104
  br label %117

117:                                              ; preds = %116
  %118 = load i32, i32* %4, align 4
  %119 = add nsw i32 %118, 1
  store i32 %119, i32* %4, align 4
  br label %98

120:                                              ; preds = %98
  %121 = load i32, i32* %8, align 4
  %122 = call i32 (i8*, ...) @printf(i8* getelementptr inbounds ([4 x i8], [4 x i8]* @.str, i64 0, i64 0), i32 %121)
  store i32 0, i32* %4, align 4
  br label %123

123:                                              ; preds = %157, %120
  %124 = load i32, i32* %4, align 4
  %125 = sext i32 %124 to i64
  %126 = getelementptr inbounds [500 x i8], [500 x i8]* %9, i64 0, i64 0
  %127 = call i64 @strlen(i8* %126) #3
  %128 = icmp ult i64 %125, %127
  br i1 %128, label %129, label %160

129:                                              ; preds = %123
  %130 = load i32, i32* %4, align 4
  %131 = sext i32 %130 to i64
  %132 = getelementptr inbounds [500 x i32], [500 x i32]* %3, i64 0, i64 %131
  %133 = load i32, i32* %132, align 4
  %134 = load i32, i32* %8, align 4
  %135 = icmp eq i32 %133, %134
  br i1 %135, label %136, label %156

136:                                              ; preds = %129
  %137 = load i32, i32* %4, align 4
  store i32 %137, i32* %5, align 4
  br label %138

138:                                              ; preds = %151, %136
  %139 = load i32, i32* %5, align 4
  %140 = load i32, i32* %4, align 4
  %141 = load i32, i32* %2, align 4
  %142 = add nsw i32 %140, %141
  %143 = icmp slt i32 %139, %142
  br i1 %143, label %144, label %154

144:                                              ; preds = %138
  %145 = load i32, i32* %5, align 4
  %146 = sext i32 %145 to i64
  %147 = getelementptr inbounds [500 x i8], [500 x i8]* %9, i64 0, i64 %146
  %148 = load i8, i8* %147, align 1
  %149 = sext i8 %148 to i32
  %150 = call i32 (i8*, ...) @printf(i8* getelementptr inbounds ([3 x i8], [3 x i8]* @.str.2, i64 0, i64 0), i32 %149)
  br label %151

151:                                              ; preds = %144
  %152 = load i32, i32* %5, align 4
  %153 = add nsw i32 %152, 1
  store i32 %153, i32* %5, align 4
  br label %138

154:                                              ; preds = %138
  %155 = call i32 (i8*, ...) @printf(i8* getelementptr inbounds ([2 x i8], [2 x i8]* @.str.3, i64 0, i64 0))
  br label %156

156:                                              ; preds = %154, %129
  br label %157

157:                                              ; preds = %156
  %158 = load i32, i32* %4, align 4
  %159 = add nsw i32 %158, 1
  store i32 %159, i32* %4, align 4
  br label %123

160:                                              ; preds = %123
  br label %161

161:                                              ; preds = %160, %95
  ret i32 0
}

declare dso_local i32 @__isoc99_scanf(i8*, ...) #1

declare dso_local i32 @gets(...) #1

; Function Attrs: nounwind readonly
declare dso_local i64 @strlen(i8*) #2

declare dso_local i32 @printf(i8*, ...) #1


!llvm.module.flags = !{!0}
!llvm.ident = !{!1}

!0 = !{i32 1, !"wchar_size", i32 4}
!1 = !{!"clang version 10.0.0-4ubuntu1 "}
